target datalayout = "e-m:e-p270:32:32-p271:32:32-p272:64:64-i64:64-i128:128-f80:128-n8:16:32:64-S128"
target triple = "x86_64-pc-linux-gnu"

%struct.strvec = type { ptr, i64, i64 }
%struct.credential_capability = type { i8, [3 x i8] }
%struct.credential = type { %struct.string_list, %struct.strvec, %struct.strvec, %struct.strvec, i16, [2 x i8], %struct.credential_capability, %struct.credential_capability, ptr, ptr, ptr, ptr, ptr, ptr, ptr, i64, ptr }
%struct.string_list = type { ptr, i64, i64, i8, ptr }

; Function Attrs: nounwind uwtable
define dso_local void @credential_init(ptr noundef %0) #0 {
  %2 = alloca ptr, align 8
  %3 = alloca %struct.credential, align 8
  store ptr %0, ptr %2, align 8, !tbaa !4
  call void @llvm.lifetime.start.p0(i64 200, ptr %3) #10
  call void @llvm.memcpy.p0.p0.i64(ptr align 8 %3, ptr align 8 @__const.credential_init.blank, i64 200, i1 false)
  %4 = load ptr, ptr %2, align 8, !tbaa !4
  call void @llvm.memcpy.p0.p0.i64(ptr align 8 %4, ptr align 8 %3, i64 200, i1 false)
  call void @llvm.lifetime.end.p0(i64 200, ptr %3) #10
  ret void
}

; Function Attrs: nounwind uwtable
define dso_local void @credential_clear_secrets(ptr noundef %0) #0 {
  %2 = alloca ptr, align 8
  store ptr %0, ptr %2, align 8, !tbaa !4
  br label %3

3:                                                ; preds = %1
  %4 = load ptr, ptr %2, align 8, !tbaa !4
  %5 = getelementptr inbounds nuw %struct.credential, ptr %4, i32 0, i32 9
  %6 = load ptr, ptr %5, align 8, !tbaa !24
  call void @free(ptr noundef %6) #10
  %7 = load ptr, ptr %2, align 8, !tbaa !4
  %8 = getelementptr inbounds nuw %struct.credential, ptr %7, i32 0, i32 9
  store ptr null, ptr %8, align 8, !tbaa !24
  br label %9

9:                                                ; preds = %3
  br label %10

10:                                               ; preds = %9
  %11 = load ptr, ptr %2, align 8, !tbaa !4
  %12 = getelementptr inbounds nuw %struct.credential, ptr %11, i32 0, i32 10
  %13 = load ptr, ptr %12, align 8, !tbaa !25
  call void @free(ptr noundef %13) #10
  %14 = load ptr, ptr %2, align 8, !tbaa !4
  %15 = getelementptr inbounds nuw %struct.credential, ptr %14, i32 0, i32 10
  store ptr null, ptr %15, align 8, !tbaa !25
  br label %16

16:                                               ; preds = %10
  ret void
}

; Function Attrs: nounwind uwtable
define dso_local void @credential_clear(ptr noundef %0) #0 {
  %2 = alloca ptr, align 8
  store ptr %0, ptr %2, align 8, !tbaa !4
  %3 = load ptr, ptr %2, align 8, !tbaa !4
  call void @credential_clear_secrets(ptr noundef %3)
  %4 = load ptr, ptr %2, align 8, !tbaa !4
  %5 = getelementptr inbounds nuw %struct.credential, ptr %4, i32 0, i32 11
  %6 = load ptr, ptr %5, align 8, !tbaa !9
  call void @free(ptr noundef %6) #10
  %7 = load ptr, ptr %2, align 8, !tbaa !4
  %8 = getelementptr inbounds nuw %struct.credential, ptr %7, i32 0, i32 12
  %9 = load ptr, ptr %8, align 8, !tbaa !19
  call void @free(ptr noundef %9) #10
  %10 = load ptr, ptr %2, align 8, !tbaa !4
  %11 = getelementptr inbounds nuw %struct.credential, ptr %10, i32 0, i32 13
  %12 = load ptr, ptr %11, align 8, !tbaa !20
  call void @free(ptr noundef %12) #10
  %13 = load ptr, ptr %2, align 8, !tbaa !4
  %14 = getelementptr inbounds nuw %struct.credential, ptr %13, i32 0, i32 8
  %15 = load ptr, ptr %14, align 8, !tbaa !21
  call void @free(ptr noundef %15) #10
  %16 = load ptr, ptr %2, align 8, !tbaa !4
  %17 = getelementptr inbounds nuw %struct.credential, ptr %16, i32 0, i32 14
  %18 = load ptr, ptr %17, align 8, !tbaa !22
  call void @free(ptr noundef %18) #10
  %19 = load ptr, ptr %2, align 8, !tbaa !4
  %20 = getelementptr inbounds nuw %struct.credential, ptr %19, i32 0, i32 16
  %21 = load ptr, ptr %20, align 8, !tbaa !23
  call void @free(ptr noundef %21) #10
  %22 = load ptr, ptr %2, align 8, !tbaa !4
  %23 = getelementptr inbounds nuw %struct.credential, ptr %22, i32 0, i32 0
  call void @string_list_clear(ptr noundef %23, i32 noundef 0)
  %24 = load ptr, ptr %2, align 8, !tbaa !4
  %25 = getelementptr inbounds nuw %struct.credential, ptr %24, i32 0, i32 1
  call void @strvec_clear(ptr noundef %25)
  %26 = load ptr, ptr %2, align 8, !tbaa !4
  %27 = getelementptr inbounds nuw %struct.credential, ptr %26, i32 0, i32 2
  call void @strvec_clear(ptr noundef %27)
  %28 = load ptr, ptr %2, align 8, !tbaa !4
  %29 = getelementptr inbounds nuw %struct.credential, ptr %28, i32 0, i32 3
  call void @strvec_clear(ptr noundef %29)
  %30 = load ptr, ptr %2, align 8, !tbaa !4
  call void @credential_init(ptr noundef %30)
  ret void
}