; Function Attrs: nounwind uwtable
define dso_local void @credential_clear(ptr noundef %0) local_unnamed_addr #3 {
  %2 = getelementptr inbounds nuw i8, ptr %0, i64 136
  %3 = load ptr, ptr %2, align 8, !tbaa !4
  tail call void @free(ptr noundef %3) #19
  store ptr null, ptr %2, align 8, !tbaa !4
  %4 = getelementptr inbounds nuw i8, ptr %0, i64 144
  %5 = load ptr, ptr %4, align 8, !tbaa !17
  tail call void @free(ptr noundef %5) #19
  store ptr null, ptr %4, align 8, !tbaa !17
  %6 = getelementptr inbounds nuw i8, ptr %0, i64 152
  %7 = load ptr, ptr %6, align 8, !tbaa !18
  tail call void @free(ptr noundef %7) #19
  %8 = getelementptr inbounds nuw i8, ptr %0, i64 160
  %9 = load ptr, ptr %8, align 8, !tbaa !19
  tail call void @free(ptr noundef %9) #19
  %10 = getelementptr inbounds nuw i8, ptr %0, i64 168
  %11 = load ptr, ptr %10, align 8, !tbaa !20
  tail call void @free(ptr noundef %11) #19
  %12 = getelementptr inbounds nuw i8, ptr %0, i64 128
  %13 = load ptr, ptr %12, align 8, !tbaa !21
  tail call void @free(ptr noundef %13) #19
  %14 = getelementptr inbounds nuw i8, ptr %0, i64 176
  %15 = load ptr, ptr %14, align 8, !tbaa !22
  tail call void @free(ptr noundef %15) #19
  %16 = getelementptr inbounds nuw i8, ptr %0, i64 192
  %17 = load ptr, ptr %16, align 8, !tbaa !23
  tail call void @free(ptr noundef %17) #19
  tail call void @string_list_clear(ptr noundef %0, i32 noundef 0) #19
  %18 = getelementptr inbounds nuw i8, ptr %0, i64 40
  tail call void @strvec_clear(ptr noundef nonnull %18) #19
  %19 = getelementptr inbounds nuw i8, ptr %0, i64 64
  tail call void @strvec_clear(ptr noundef nonnull %19) #19
  %20 = getelementptr inbounds nuw i8, ptr %0, i64 88
  tail call void @strvec_clear(ptr noundef nonnull %20) #19
  tail call void @llvm.memcpy.p0.p0.i64(ptr noundef nonnull align 8 dereferenceable(200) %0, ptr noundef nonnull align 8 dereferenceable(200) @__const.match_partial_url.want, i64 200, i1 false)
  ret void
}